; Function Attrs: mustprogress uwtable
define void @_ZN9grpc_core11ThreadQuota6SetMaxEm(ptr noundef nonnull align 8 dereferenceable(40) %0, i64 noundef %1) local_unnamed_addr #3 align 2 personality ptr @__gxx_personality_v0 {
  %3 = getelementptr inbounds nuw i8, ptr %0, i64 16
  tail call void @_ZN4absl12lts_202407225Mutex4LockEv(ptr noundef nonnull align 8 dereferenceable(8) %3)
  %4 = getelementptr inbounds nuw i8, ptr %0, i64 32
  store i64 %1, ptr %4, align 8, !tbaa !10
  invoke void @_ZN4absl12lts_202407225Mutex6UnlockEv(ptr noundef nonnull align 8 dereferenceable(8) %3)
          to label %_ZN4absl12lts_202407229MutexLockD2Ev.exit unwind label %5

5:                                                ; preds = %2
  %6 = landingpad { ptr, i32 }
          catch ptr null
  %7 = extractvalue { ptr, i32 } %6, 0
  tail call void @__clang_call_terminate(ptr %7) #13
  unreachable

_ZN4absl12lts_202407229MutexLockD2Ev.exit:        ; preds = %2
  ret void
}